; ModuleID = 'source-C-CXX/33/3113.c'
source_filename = "source-C-CXX/33/3113.c"
target datalayout = "e-m:e-p270:32:32-p271:32:32-p272:64:64-i64:64-f80:128-n8:16:32:64-S128"
target triple = "x86_64-pc-linux-gnu"

@.str = private unnamed_addr constant [3 x i8] c"%d\00", align 1
@.str.1 = private unnamed_addr constant [4 x i8] c"End\00", align 1
@.str.2 = private unnamed_addr constant [11 x i8] c"%d*3+1=%d\0A\00", align 1
@.str.3 = private unnamed_addr constant [9 x i8] c"%d/2=%d\0A\00", align 1

; Function Attrs: mustprogress nofree norecurse nosync nounwind readnone sspstrong uwtable willreturn
define dso_local i32 @wer(i32 %0) local_unnamed_addr #0 {
  %2 = srem i32 %0, 2
  %3 = sdiv i32 %0, 2
  %4 = icmp eq i32 %2, 1
  %5 = mul nsw i32 %0, 3
  %6 = add nsw i32 %5, 1
  %7 = select i1 %4, i32 %6, i32 %3
  ret i32 %7
}

; Function Attrs: argmemonly mustprogress nofree nosync nounwind willreturn
declare void @llvm.lifetime.start.p0i8(i64 immarg, i8* nocapture) #1

; Function Attrs: argmemonly mustprogress nofree nosync nounwind willreturn
declare void @llvm.lifetime.end.p0i8(i64 immarg, i8* nocapture) #1

; Function Attrs: nofree nounwind sspstrong uwtable
define dso_local i32 @main() local_unnamed_addr #2 {
  %1 = alloca i32, align 4
  %2 = bitcast i32* %1 to i8*
  call void @llvm.lifetime.start.p0i8(i64 4, i8* nonnull %2) #4
  %3 = call i32 (i8*, ...) @__isoc99_scanf(i8* getelementptr inbounds ([3 x i8], [3 x i8]* @.str, i64 0, i64 0), i32* nonnull %1)
  %4 = load i32, i32* %1, align 4, !tbaa !5
  %5 = icmp eq i32 %4, 1
  br i1 %5, label %34, label %6

6:                                                ; preds = %0, %31
  %7 = phi i32 [ %32, %31 ], [ %4, %0 ]
  %8 = srem i32 %7, 2
  %9 = sdiv i32 %7, 2
  %10 = icmp eq i32 %8, 1
  br i1 %10, label %11, label %22

11:                                               ; preds = %6
  %12 = mul nsw i32 %7, 3
  %13 = add nsw i32 %12, 1
  %14 = call i32 (i8*, ...) @printf(i8* nonnull dereferenceable(1) getelementptr inbounds ([11 x i8], [11 x i8]* @.str.2, i64 0, i64 0), i32 %7, i32 %13)
  %15 = load i32, i32* %1, align 4, !tbaa !5
  %16 = srem i32 %15, 2
  %17 = sdiv i32 %15, 2
  %18 = icmp eq i32 %16, 1
  br i1 %18, label %19, label %31

19:                                               ; preds = %11
  %20 = mul nsw i32 %15, 3
  %21 = add nsw i32 %20, 1
  br label %31

22:                                               ; preds = %6
  %23 = call i32 (i8*, ...) @printf(i8* nonnull dereferenceable(1) getelementptr inbounds ([9 x i8], [9 x i8]* @.str.3, i64 0, i64 0), i32 %7, i32 %9)
  %24 = load i32, i32* %1, align 4, !tbaa !5
  %25 = srem i32 %24, 2
  %26 = sdiv i32 %24, 2
  %27 = icmp eq i32 %25, 1
  br i1 %27, label %28, label %31

28:                                               ; preds = %22
  %29 = mul nsw i32 %24, 3
  %30 = add nsw i32 %29, 1
  br label %31

31:                                               ; preds = %22, %11, %28, %19
  %32 = phi i32 [ %21, %19 ], [ %30, %28 ], [ %17, %11 ], [ %26, %22 ]
  store i32 %32, i32* %1, align 4, !tbaa !5
  %33 = icmp eq i32 %32, 1
  br i1 %33, label %34, label %6

34:                                               ; preds = %31, %0
  %35 = call i32 (i8*, ...) @printf(i8* nonnull dereferenceable(1) getelementptr inbounds ([4 x i8], [4 x i8]* @.str.1, i64 0, i64 0))
  call void @llvm.lifetime.end.p0i8(i64 4, i8* nonnull %2) #4
  ret i32 0
}

; Function Attrs: nofree nounwind
declare noundef i32 @__isoc99_scanf(i8* nocapture noundef readonly, ...) local_unnamed_addr #3

; Function Attrs: nofree nounwind
declare noundef i32 @printf(i8* nocapture noundef readonly, ...) local_unnamed_addr #3


!llvm.module.flags = !{!0, !1, !2, !3}
!llvm.ident = !{!4}

!0 = !{i32 1, !"wchar_size", i32 4}
!1 = !{i32 7, !"PIC Level", i32 2}
!2 = !{i32 7, !"PIE Level", i32 2}
!3 = !{i32 7, !"uwtable", i32 1}
!4 = !{!"clang version 13.0.0"}
!5 = !{!6, !6, i64 0}
!6 = !{!"int", !7, i64 0}
!7 = !{!"omnipotent char", !8, i64 0}
!8 = !{!"Simple C/C++ TBAA"}
